; Function Attrs: nounwind sspstrong uwtable
define dso_local zeroext i1 @visit_type_q_obj_BLOCK_WRITE_THRESHOLD_arg_members(ptr noundef %v, ptr noundef %obj, ptr noundef %errp) local_unnamed_addr #0 {
entry:
  %call = tail call zeroext i1 @visit_type_str(ptr noundef %v, ptr noundef nonnull @.str.64, ptr noundef %obj, ptr noundef %errp) #5
  br i1 %call, label %if.end, label %return

if.end:                                           ; preds = %entry
  %amount_exceeded = getelementptr inbounds nuw i8, ptr %obj, i64 8
  %call1 = tail call zeroext i1 @visit_type_uint64(ptr noundef %v, ptr noundef nonnull @.str.407, ptr noundef nonnull %amount_exceeded, ptr noundef %errp) #5
  br i1 %call1, label %if.end3, label %return

if.end3:                                          ; preds = %if.end
  %write_threshold = getelementptr inbounds nuw i8, ptr %obj, i64 16
  %call4 = tail call zeroext i1 @visit_type_uint64(ptr noundef %v, ptr noundef nonnull @.str.408, ptr noundef nonnull %write_threshold, ptr noundef %errp) #5
  br label %return

return:                                           ; preds = %if.end3, %if.end, %entry
  %retval.0 = phi i1 [ false, %entry ], [ false, %if.end ], [ %call4, %if.end3 ]
  ret i1 %retval.0
}